target datalayout = "e-m:e-p270:32:32-p271:32:32-p272:64:64-i64:64-i128:128-f80:128-n8:16:32:64-S128"
target triple = "x86_64-pc-linux-gnu"

%struct._lv_buttonmatrix_t = type { %struct._lv_obj_t, ptr, ptr, ptr, i32, i32, i32, i8 }
%struct._lv_obj_t = type { ptr, ptr, ptr, ptr, ptr, %struct.lv_area_t, i32, i16, i16 }
%struct.lv_area_t = type { i32, i32, i32, i32 }

; Function Attrs: nounwind uwtable
define void @lv_buttonmatrix_set_selected_button(ptr noundef %0, i32 noundef %1) #0 {
  %3 = alloca ptr, align 8
  %4 = alloca i32, align 4
  %5 = alloca ptr, align 8
  %6 = alloca i32, align 4
  store ptr %0, ptr %3, align 8, !tbaa !3
  store i32 %1, ptr %4, align 4, !tbaa !18
  br label %7

7:                                                ; preds = %2
  br label %8

8:                                                ; preds = %7
  call void @llvm.lifetime.start.p0(i64 8, ptr %5) #4
  %9 = load ptr, ptr %3, align 8, !tbaa !3
  store ptr %9, ptr %5, align 8, !tbaa !3
  %10 = load i32, ptr %4, align 4, !tbaa !18
  %11 = load ptr, ptr %5, align 8, !tbaa !3
  %12 = getelementptr inbounds nuw %struct._lv_buttonmatrix_t, ptr %11, i32 0, i32 4
  %13 = load i32, ptr %12, align 8, !tbaa !7
  %14 = icmp uge i32 %10, %13
  br i1 %14, label %15, label %19

15:                                               ; preds = %8
  %16 = load i32, ptr %4, align 4, !tbaa !18
  %17 = icmp ne i32 %16, 65535
  br i1 %17, label %18, label %19

18:                                               ; preds = %15
  store i32 1, ptr %6, align 4
  br label %29

19:                                               ; preds = %15, %8
  %20 = load ptr, ptr %3, align 8, !tbaa !3
  %21 = load ptr, ptr %5, align 8, !tbaa !3
  %22 = getelementptr inbounds nuw %struct._lv_buttonmatrix_t, ptr %21, i32 0, i32 6
  %23 = load i32, ptr %22, align 8, !tbaa !14
  call void @invalidate_button_area(ptr noundef %20, i32 noundef %23)
  %24 = load i32, ptr %4, align 4, !tbaa !18
  %25 = load ptr, ptr %5, align 8, !tbaa !3
  %26 = getelementptr inbounds nuw %struct._lv_buttonmatrix_t, ptr %25, i32 0, i32 6
  store i32 %24, ptr %26, align 8, !tbaa !14
  %27 = load ptr, ptr %3, align 8, !tbaa !3
  %28 = load i32, ptr %4, align 4, !tbaa !18
  call void @invalidate_button_area(ptr noundef %27, i32 noundef %28)
  store i32 0, ptr %6, align 4
  br label %29

29:                                               ; preds = %19, %18
  call void @llvm.lifetime.end.p0(i64 8, ptr %5) #4
  %30 = load i32, ptr %6, align 4
  switch i32 %30, label %32 [
    i32 0, label %31
    i32 1, label %31
  ]

31:                                               ; preds = %29, %29
  ret void

32:                                               ; preds = %29
  unreachable
}