; Function Attrs: nounwind uwtable
define void @lv_buttonmatrix_set_selected_button(ptr noundef %0, i32 noundef %1) local_unnamed_addr #0 {
  %3 = getelementptr inbounds nuw i8, ptr %0, i64 88
  %4 = load i32, ptr %3, align 8, !tbaa !3
  %5 = icmp uge i32 %1, %4
  %6 = icmp ne i32 %1, 65535
  %or.cond = and i1 %6, %5
  br i1 %or.cond, label %10, label %7

7:                                                ; preds = %2
  %8 = getelementptr inbounds nuw i8, ptr %0, i64 96
  %9 = load i32, ptr %8, align 8, !tbaa !13
  tail call fastcc void @invalidate_button_area(ptr noundef nonnull %0, i32 noundef %9)
  store i32 %1, ptr %8, align 8, !tbaa !13
  tail call fastcc void @invalidate_button_area(ptr noundef nonnull %0, i32 noundef %1)
  br label %10

10:                                               ; preds = %2, %7
  ret void
}